target datalayout = "e-m:e-p270:32:32-p271:32:32-p272:64:64-i64:64-i128:128-f80:128-n8:16:32:64-S128"
target triple = "x86_64-pc-linux-gnu"

%struct.DynBuf = type { ptr, i64, i64, i32, ptr, ptr }
%struct.__va_list_tag = type { i32, i32, ptr, ptr }

; Function Attrs: nounwind uwtable
define dso_local i32 @dbuf_realloc(ptr noundef %0, i64 noundef %1) #0 {
  %3 = alloca i32, align 4
  %4 = alloca ptr, align 8
  %5 = alloca i64, align 8
  %6 = alloca i64, align 8
  %7 = alloca ptr, align 8
  store ptr %0, ptr %4, align 8
  store i64 %1, ptr %5, align 8
  %8 = load i64, ptr %5, align 8
  %9 = load ptr, ptr %4, align 8
  %10 = getelementptr inbounds %struct.DynBuf, ptr %9, i32 0, i32 2
  %11 = load i64, ptr %10, align 8
  %12 = icmp ugt i64 %8, %11
  br i1 %12, label %13, label %54

13:                                               ; preds = %2
  %14 = load ptr, ptr %4, align 8
  %15 = getelementptr inbounds %struct.DynBuf, ptr %14, i32 0, i32 3
  %16 = load i32, ptr %15, align 8
  %17 = icmp ne i32 %16, 0
  br i1 %17, label %18, label %19

18:                                               ; preds = %13
  store i32 -1, ptr %3, align 4
  br label %55

19:                                               ; preds = %13
  %20 = load ptr, ptr %4, align 8
  %21 = getelementptr inbounds %struct.DynBuf, ptr %20, i32 0, i32 2
  %22 = load i64, ptr %21, align 8
  %23 = mul i64 %22, 3
  %24 = udiv i64 %23, 2
  store i64 %24, ptr %6, align 8
  %25 = load i64, ptr %6, align 8
  %26 = load i64, ptr %5, align 8
  %27 = icmp ugt i64 %25, %26
  br i1 %27, label %28, label %30

28:                                               ; preds = %19
  %29 = load i64, ptr %6, align 8
  store i64 %29, ptr %5, align 8
  br label %30

30:                                               ; preds = %28, %19
  %31 = load ptr, ptr %4, align 8
  %32 = getelementptr inbounds %struct.DynBuf, ptr %31, i32 0, i32 4
  %33 = load ptr, ptr %32, align 8
  %34 = load ptr, ptr %4, align 8
  %35 = getelementptr inbounds %struct.DynBuf, ptr %34, i32 0, i32 5
  %36 = load ptr, ptr %35, align 8
  %37 = load ptr, ptr %4, align 8
  %38 = getelementptr inbounds %struct.DynBuf, ptr %37, i32 0, i32 0
  %39 = load ptr, ptr %38, align 8
  %40 = load i64, ptr %5, align 8
  %41 = call ptr %33(ptr noundef %36, ptr noundef %39, i64 noundef %40)
  store ptr %41, ptr %7, align 8
  %42 = load ptr, ptr %7, align 8
  %43 = icmp ne ptr %42, null
  br i1 %43, label %47, label %44

44:                                               ; preds = %30
  %45 = load ptr, ptr %4, align 8
  %46 = getelementptr inbounds %struct.DynBuf, ptr %45, i32 0, i32 3
  store i32 1, ptr %46, align 8
  store i32 -1, ptr %3, align 4
  br label %55

47:                                               ; preds = %30
  %48 = load ptr, ptr %7, align 8
  %49 = load ptr, ptr %4, align 8
  %50 = getelementptr inbounds %struct.DynBuf, ptr %49, i32 0, i32 0
  store ptr %48, ptr %50, align 8
  %51 = load i64, ptr %5, align 8
  %52 = load ptr, ptr %4, align 8
  %53 = getelementptr inbounds %struct.DynBuf, ptr %52, i32 0, i32 2
  store i64 %51, ptr %53, align 8
  br label %54

54:                                               ; preds = %47, %2
  store i32 0, ptr %3, align 4
  br label %55

55:                                               ; preds = %54, %44, %18
  %56 = load i32, ptr %3, align 4
  ret i32 %56
}

; Function Attrs: nounwind uwtable
define dso_local i32 @dbuf_put(ptr noundef %0, ptr noundef %1, i64 noundef %2) #0 {
  %4 = alloca i32, align 4
  %5 = alloca ptr, align 8
  %6 = alloca ptr, align 8
  %7 = alloca i64, align 8
  store ptr %0, ptr %5, align 8
  store ptr %1, ptr %6, align 8
  store i64 %2, ptr %7, align 8
  %8 = load ptr, ptr %5, align 8
  %9 = getelementptr inbounds %struct.DynBuf, ptr %8, i32 0, i32 1
  %10 = load i64, ptr %9, align 8
  %11 = load i64, ptr %7, align 8
  %12 = add i64 %10, %11
  %13 = load ptr, ptr %5, align 8
  %14 = getelementptr inbounds %struct.DynBuf, ptr %13, i32 0, i32 2
  %15 = load i64, ptr %14, align 8
  %16 = icmp ugt i64 %12, %15
  %17 = xor i1 %16, true
  %18 = xor i1 %17, true
  %19 = zext i1 %18 to i32
  %20 = sext i32 %19 to i64
  %21 = icmp ne i64 %20, 0
  br i1 %21, label %22, label %33

22:                                               ; preds = %3
  %23 = load ptr, ptr %5, align 8
  %24 = load ptr, ptr %5, align 8
  %25 = getelementptr inbounds %struct.DynBuf, ptr %24, i32 0, i32 1
  %26 = load i64, ptr %25, align 8
  %27 = load i64, ptr %7, align 8
  %28 = add i64 %26, %27
  %29 = call i32 @dbuf_realloc(ptr noundef %23, i64 noundef %28)
  %30 = icmp ne i32 %29, 0
  br i1 %30, label %31, label %32

31:                                               ; preds = %22
  store i32 -1, ptr %4, align 4
  br label %48

32:                                               ; preds = %22
  br label %33

33:                                               ; preds = %32, %3
  %34 = load ptr, ptr %5, align 8
  %35 = getelementptr inbounds %struct.DynBuf, ptr %34, i32 0, i32 0
  %36 = load ptr, ptr %35, align 8
  %37 = load ptr, ptr %5, align 8
  %38 = getelementptr inbounds %struct.DynBuf, ptr %37, i32 0, i32 1
  %39 = load i64, ptr %38, align 8
  %40 = getelementptr i8, ptr %36, i64 %39
  %41 = load ptr, ptr %6, align 8
  %42 = load i64, ptr %7, align 8
  call void @llvm.memcpy.p0.p0.i64(ptr align 1 %40, ptr align 1 %41, i64 %42, i1 false)
  %43 = load i64, ptr %7, align 8
  %44 = load ptr, ptr %5, align 8
  %45 = getelementptr inbounds %struct.DynBuf, ptr %44, i32 0, i32 1
  %46 = load i64, ptr %45, align 8
  %47 = add i64 %46, %43
  store i64 %47, ptr %45, align 8
  store i32 0, ptr %4, align 4
  br label %48

48:                                               ; preds = %33, %31
  %49 = load i32, ptr %4, align 4
  ret i32 %49
}

; Function Attrs: nounwind uwtable
define dso_local i32 @dbuf_printf(ptr noundef %0, ptr noundef %1, ...) #0 {
  %3 = alloca i32, align 4
  %4 = alloca ptr, align 8
  %5 = alloca ptr, align 8
  %6 = alloca [1 x %struct.__va_list_tag], align 16
  %7 = alloca [128 x i8], align 16
  %8 = alloca i32, align 4
  store ptr %0, ptr %4, align 8
  store ptr %1, ptr %5, align 8
  %9 = getelementptr inbounds [1 x %struct.__va_list_tag], ptr %6, i64 0, i64 0
  call void @llvm.va_start(ptr %9)
  %10 = getelementptr inbounds [128 x i8], ptr %7, i64 0, i64 0
  %11 = load ptr, ptr %5, align 8
  %12 = getelementptr inbounds [1 x %struct.__va_list_tag], ptr %6, i64 0, i64 0
  %13 = call i32 @vsnprintf(ptr noundef %10, i64 noundef 128, ptr noundef %11, ptr noundef %12) #9
  store i32 %13, ptr %8, align 4
  %14 = getelementptr inbounds [1 x %struct.__va_list_tag], ptr %6, i64 0, i64 0
  call void @llvm.va_end(ptr %14)
  %15 = load i32, ptr %8, align 4
  %16 = sext i32 %15 to i64
  %17 = icmp ult i64 %16, 128
  br i1 %17, label %18, label %24

18:                                               ; preds = %2
  %19 = load ptr, ptr %4, align 8
  %20 = getelementptr inbounds [128 x i8], ptr %7, i64 0, i64 0
  %21 = load i32, ptr %8, align 4
  %22 = sext i32 %21 to i64
  %23 = call i32 @dbuf_put(ptr noundef %19, ptr noundef %20, i64 noundef %22)
  store i32 %23, ptr %3, align 4
  br label %63

24:                                               ; preds = %2
  %25 = load ptr, ptr %4, align 8
  %26 = load ptr, ptr %4, align 8
  %27 = getelementptr inbounds %struct.DynBuf, ptr %26, i32 0, i32 1
  %28 = load i64, ptr %27, align 8
  %29 = load i32, ptr %8, align 4
  %30 = sext i32 %29 to i64
  %31 = add i64 %28, %30
  %32 = add i64 %31, 1
  %33 = call i32 @dbuf_realloc(ptr noundef %25, i64 noundef %32)
  %34 = icmp ne i32 %33, 0
  br i1 %34, label %35, label %36

35:                                               ; preds = %24
  store i32 -1, ptr %3, align 4
  br label %63

36:                                               ; preds = %24
  %37 = getelementptr inbounds [1 x %struct.__va_list_tag], ptr %6, i64 0, i64 0
  call void @llvm.va_start(ptr %37)
  %38 = load ptr, ptr %4, align 8
  %39 = getelementptr inbounds %struct.DynBuf, ptr %38, i32 0, i32 0
  %40 = load ptr, ptr %39, align 8
  %41 = load ptr, ptr %4, align 8
  %42 = getelementptr inbounds %struct.DynBuf, ptr %41, i32 0, i32 1
  %43 = load i64, ptr %42, align 8
  %44 = getelementptr i8, ptr %40, i64 %43
  %45 = load ptr, ptr %4, align 8
  %46 = getelementptr inbounds %struct.DynBuf, ptr %45, i32 0, i32 2
  %47 = load i64, ptr %46, align 8
  %48 = load ptr, ptr %4, align 8
  %49 = getelementptr inbounds %struct.DynBuf, ptr %48, i32 0, i32 1
  %50 = load i64, ptr %49, align 8
  %51 = sub i64 %47, %50
  %52 = load ptr, ptr %5, align 8
  %53 = getelementptr inbounds [1 x %struct.__va_list_tag], ptr %6, i64 0, i64 0
  %54 = call i32 @vsnprintf(ptr noundef %44, i64 noundef %51, ptr noundef %52, ptr noundef %53) #9
  %55 = getelementptr inbounds [1 x %struct.__va_list_tag], ptr %6, i64 0, i64 0
  call void @llvm.va_end(ptr %55)
  %56 = load i32, ptr %8, align 4
  %57 = sext i32 %56 to i64
  %58 = load ptr, ptr %4, align 8
  %59 = getelementptr inbounds %struct.DynBuf, ptr %58, i32 0, i32 1
  %60 = load i64, ptr %59, align 8
  %61 = add i64 %60, %57
  store i64 %61, ptr %59, align 8
  br label %62

62:                                               ; preds = %36
  store i32 0, ptr %3, align 4
  br label %63

63:                                               ; preds = %62, %35, %18
  %64 = load i32, ptr %3, align 4
  ret i32 %64
}