; Function Attrs: nounwind uwtable
define dso_local noundef i32 @dbuf_printf(ptr nocapture noundef %0, ptr nocapture noundef readonly %1, ...) local_unnamed_addr #8 {
  %3 = alloca [1 x %struct.__va_list_tag], align 16
  %4 = alloca [128 x i8], align 16
  call void @llvm.va_start(ptr nonnull %3)
  %5 = call i32 @vsnprintf(ptr noundef nonnull %4, i64 noundef 128, ptr noundef %1, ptr noundef nonnull %3) #19
  call void @llvm.va_end(ptr nonnull %3)
  %6 = sext i32 %5 to i64
  %7 = icmp ult i32 %5, 128
  %8 = getelementptr inbounds i8, ptr %0, i64 8
  %9 = load i64, ptr %8, align 8
  br i1 %7, label %10, label %34

10:                                               ; preds = %2
  %11 = add i64 %9, %6
  %12 = getelementptr inbounds i8, ptr %0, i64 16
  %13 = load i64, ptr %12, align 8
  %14 = icmp ugt i64 %11, %13
  br i1 %14, label %15, label %._crit_edge.i

._crit_edge.i:                                    ; preds = %10
  %.pre.i = load ptr, ptr %0, align 8
  br label %28

15:                                               ; preds = %10
  %16 = getelementptr inbounds i8, ptr %0, i64 24
  %17 = load i32, ptr %16, align 8
  %.not.i.i = icmp eq i32 %17, 0
  br i1 %.not.i.i, label %18, label %dbuf_put.exit

18:                                               ; preds = %15
  %19 = mul i64 %13, 3
  %20 = lshr i64 %19, 1
  %spec.select.i.i = call i64 @llvm.umax.i64(i64 %20, i64 %11)
  %21 = getelementptr inbounds i8, ptr %0, i64 32
  %22 = load ptr, ptr %21, align 8
  %23 = getelementptr inbounds i8, ptr %0, i64 40
  %24 = load ptr, ptr %23, align 8
  %25 = load ptr, ptr %0, align 8
  %26 = call ptr %22(ptr noundef %24, ptr noundef %25, i64 noundef %spec.select.i.i) #19
  %.not22.i.i = icmp eq ptr %26, null
  br i1 %.not22.i.i, label %27, label %dbuf_realloc.exit.i

27:                                               ; preds = %18
  store i32 1, ptr %16, align 8
  br label %dbuf_put.exit

dbuf_realloc.exit.i:                              ; preds = %18
  store ptr %26, ptr %0, align 8
  store i64 %spec.select.i.i, ptr %12, align 8
  %.pre15.i = load i64, ptr %8, align 8
  br label %28

28:                                               ; preds = %dbuf_realloc.exit.i, %._crit_edge.i
  %29 = phi i64 [ %9, %._crit_edge.i ], [ %.pre15.i, %dbuf_realloc.exit.i ]
  %30 = phi ptr [ %.pre.i, %._crit_edge.i ], [ %26, %dbuf_realloc.exit.i ]
  %31 = getelementptr i8, ptr %30, i64 %29
  call void @llvm.memcpy.p0.p0.i64(ptr align 1 %31, ptr nonnull align 16 %4, i64 %6, i1 false)
  %32 = load i64, ptr %8, align 8
  %33 = add i64 %32, %6
  store i64 %33, ptr %8, align 8
  br label %dbuf_put.exit

34:                                               ; preds = %2
  %35 = add nsw i64 %6, 1
  %36 = add i64 %35, %9
  %37 = getelementptr inbounds i8, ptr %0, i64 16
  %38 = load i64, ptr %37, align 8
  %39 = icmp ult i64 %38, %36
  br i1 %39, label %40, label %54

40:                                               ; preds = %34
  %41 = getelementptr inbounds i8, ptr %0, i64 24
  %42 = load i32, ptr %41, align 8
  %.not.i = icmp eq i32 %42, 0
  br i1 %.not.i, label %43, label %dbuf_put.exit

43:                                               ; preds = %40
  %44 = mul i64 %38, 3
  %45 = lshr i64 %44, 1
  %spec.select.i = call i64 @llvm.umax.i64(i64 %45, i64 %36)
  %46 = getelementptr inbounds i8, ptr %0, i64 32
  %47 = load ptr, ptr %46, align 8
  %48 = getelementptr inbounds i8, ptr %0, i64 40
  %49 = load ptr, ptr %48, align 8
  %50 = load ptr, ptr %0, align 8
  %51 = call ptr %47(ptr noundef %49, ptr noundef %50, i64 noundef %spec.select.i) #19
  %.not22.i = icmp eq ptr %51, null
  br i1 %.not22.i, label %52, label %53

52:                                               ; preds = %43
  store i32 1, ptr %41, align 8
  br label %dbuf_put.exit

53:                                               ; preds = %43
  store ptr %51, ptr %0, align 8
  store i64 %spec.select.i, ptr %37, align 8
  br label %54

54:                                               ; preds = %53, %34
  call void @llvm.va_start(ptr nonnull %3)
  %55 = load ptr, ptr %0, align 8
  %56 = load i64, ptr %8, align 8
  %57 = getelementptr i8, ptr %55, i64 %56
  %58 = load i64, ptr %37, align 8
  %59 = sub i64 %58, %56
  %60 = call i32 @vsnprintf(ptr noundef %57, i64 noundef %59, ptr noundef %1, ptr noundef nonnull %3) #19
  call void @llvm.va_end(ptr nonnull %3)
  %61 = load i64, ptr %8, align 8
  %62 = add i64 %61, %6
  store i64 %62, ptr %8, align 8
  br label %dbuf_put.exit

dbuf_put.exit:                                    ; preds = %52, %40, %28, %27, %15, %54
  %.0 = phi i32 [ 0, %54 ], [ 0, %28 ], [ -1, %27 ], [ -1, %15 ], [ -1, %40 ], [ -1, %52 ]
  ret i32 %.0
}